; Function Attrs: mustprogress nofree norecurse nosync nounwind willreturn memory(none) uwtable
define dso_local noundef zeroext i1 @_ZN4llvm3X8611isVFNMSUBSDEj(i32 noundef %0) local_unnamed_addr #0 {
  %switch.tableidx = add i32 %0, -12083
  %2 = icmp ult i32 %switch.tableidx, 8
  %switch.cast = trunc i32 %switch.tableidx to i8
  %switch.downshift = lshr i8 -107, %switch.cast
  %switch.masked = trunc i8 %switch.downshift to i1
  %.0 = select i1 %2, i1 %switch.masked, i1 false
  ret i1 %.0
}